; Function Attrs: nounwind uwtable
define dso_local i64 @jsonb_float8(ptr noundef captures(none) %0) local_unnamed_addr #0 {
  %2 = alloca ptr, align 8
  %3 = alloca %struct.JsonbValue, align 8
  %4 = alloca %struct.JsonbValue, align 8
  %5 = getelementptr inbounds nuw i8, ptr %0, i64 32
  %6 = load i64, ptr %5, align 8
  %7 = inttoptr i64 %6 to ptr
  %8 = tail call ptr @pg_detoast_datum(ptr noundef %7) #11
  call void @llvm.lifetime.start.p0(i64 32, ptr nonnull %4) #11
  %9 = getelementptr inbounds nuw i8, ptr %8, i64 4
  call void @llvm.lifetime.start.p0(i64 8, ptr nonnull %2) #11
  call void @llvm.lifetime.start.p0(i64 32, ptr nonnull %3) #11
  %10 = load i32, ptr %9, align 4
  %11 = and i32 %10, 1342177280
  %or.cond.not.i = icmp eq i32 %11, 1342177280
  br i1 %or.cond.not.i, label %JsonbExtractScalar.exit.thread, label %18

JsonbExtractScalar.exit.thread:                   ; preds = %1
  %12 = tail call ptr @JsonbIteratorInit(ptr noundef nonnull %9) #11
  store ptr %12, ptr %2, align 8
  %13 = call i32 @JsonbIteratorNext(ptr noundef nonnull %2, ptr noundef nonnull %3, i1 noundef zeroext true) #11
  %14 = call i32 @JsonbIteratorNext(ptr noundef nonnull %2, ptr noundef nonnull %4, i1 noundef zeroext true) #11
  %15 = call i32 @JsonbIteratorNext(ptr noundef nonnull %2, ptr noundef nonnull %3, i1 noundef zeroext true) #11
  %16 = call i32 @JsonbIteratorNext(ptr noundef nonnull %2, ptr noundef nonnull %3, i1 noundef zeroext true) #11
  call void @llvm.lifetime.end.p0(i64 32, ptr nonnull %3) #11
  call void @llvm.lifetime.end.p0(i64 8, ptr nonnull %2) #11
  %17 = load i32, ptr %4, align 8
  switch i32 %17, label %27 [
    i32 0, label %21
    i32 2, label %28
  ]

18:                                               ; preds = %1
  %19 = and i32 %10, 1073741824
  %.not.i = icmp eq i32 %19, 0
  %20 = select i1 %.not.i, i32 17, i32 16
  call void @llvm.lifetime.end.p0(i64 32, ptr nonnull %3) #11
  call void @llvm.lifetime.end.p0(i64 8, ptr nonnull %2) #11
  tail call fastcc void @cannotCastJsonbValue(i32 noundef %20, ptr noundef nonnull @.str.31)
  unreachable

21:                                               ; preds = %JsonbExtractScalar.exit.thread
  %22 = load i64, ptr %5, align 8
  %23 = inttoptr i64 %22 to ptr
  %.not13 = icmp eq ptr %8, %23
  br i1 %.not13, label %25, label %24

24:                                               ; preds = %21
  call void @pfree(ptr noundef nonnull %8) #11
  br label %25

25:                                               ; preds = %21, %24
  %26 = getelementptr inbounds nuw i8, ptr %0, i64 28
  store i8 1, ptr %26, align 4
  br label %36

27:                                               ; preds = %JsonbExtractScalar.exit.thread
  call fastcc void @cannotCastJsonbValue(i32 noundef %17, ptr noundef nonnull @.str.31)
  unreachable

28:                                               ; preds = %JsonbExtractScalar.exit.thread
  %29 = getelementptr inbounds nuw i8, ptr %4, i64 8
  %30 = load ptr, ptr %29, align 8
  %31 = ptrtoint ptr %30 to i64
  %32 = call i64 @DirectFunctionCall1Coll(ptr noundef nonnull @numeric_float8, i32 noundef 0, i64 noundef %31) #11
  %33 = load i64, ptr %5, align 8
  %34 = inttoptr i64 %33 to ptr
  %.not12 = icmp eq ptr %8, %34
  br i1 %.not12, label %36, label %35

35:                                               ; preds = %28
  call void @pfree(ptr noundef nonnull %8) #11
  br label %36

36:                                               ; preds = %28, %35, %25
  %.0 = phi i64 [ 0, %25 ], [ %32, %35 ], [ %32, %28 ]
  call void @llvm.lifetime.end.p0(i64 32, ptr nonnull %4) #11
  ret i64 %.0
}